target datalayout = "e-m:e-p270:32:32-p271:32:32-p272:64:64-i64:64-i128:128-f80:128-n8:16:32:64-S128"
target triple = "x86_64-pc-linux-gnu"

%struct._object = type { %union.anon, ptr }
%union.anon = type { i64 }
%struct.PyVarObject = type { %struct._object, i64 }
%struct.pysqlite_Connection = type { %struct._object, ptr, ptr, i32, ptr, i32, i32, i32, i64, ptr, ptr, ptr, i32, ptr, ptr, ptr, ptr, ptr, ptr, ptr, ptr, ptr, ptr, ptr, ptr, ptr, ptr, ptr }
%struct.PyListObject = type { %struct.PyVarObject, ptr, i64 }
%struct.pysqlite_Blob = type { %struct._object, ptr, ptr, i32, ptr }
%struct.anon = type { i32, i32 }

; Function Attrs: alwaysinline nounwind uwtable
define internal i32 @_Py_IsImmortal(ptr noundef %0) #4 {
  %2 = alloca ptr, align 8
  store ptr %0, ptr %2, align 8, !tbaa !22
  %3 = load ptr, ptr %2, align 8, !tbaa !22
  %4 = getelementptr inbounds nuw %struct._object, ptr %3, i32 0, i32 0
  %5 = getelementptr inbounds nuw %struct.anon, ptr %4, i32 0, i32 0
  %6 = load i32, ptr %5, align 8, !tbaa !31
  %7 = icmp slt i32 %6, 0
  %8 = zext i1 %7 to i32
  ret i32 %8
}

; Function Attrs: inlinehint nounwind uwtable
define internal i64 @Py_SIZE(ptr noundef %0) #2 {
  %2 = alloca ptr, align 8
  store ptr %0, ptr %2, align 8, !tbaa !22
  %3 = load ptr, ptr %2, align 8, !tbaa !22
  %4 = getelementptr inbounds nuw %struct.PyVarObject, ptr %3, i32 0, i32 1
  %5 = load i64, ptr %4, align 8, !tbaa !34
  ret i64 %5
}

; Function Attrs: alwaysinline nounwind uwtable
define internal void @Py_DECREF(ptr noundef %0) #4 {
  %2 = alloca ptr, align 8
  store ptr %0, ptr %2, align 8, !tbaa !22
  %3 = load ptr, ptr %2, align 8, !tbaa !22
  %4 = call i32 @_Py_IsImmortal(ptr noundef %3)
  %5 = icmp ne i32 %4, 0
  br i1 %5, label %6, label %7

6:                                                ; preds = %1
  br label %16

7:                                                ; preds = %1
  %8 = load ptr, ptr %2, align 8, !tbaa !22
  %9 = getelementptr inbounds nuw %struct._object, ptr %8, i32 0, i32 0
  %10 = getelementptr inbounds nuw %struct.anon, ptr %9, i32 0, i32 0
  %11 = load i32, ptr %10, align 8, !tbaa !31
  %12 = add i32 %11, -1
  store i32 %12, ptr %10, align 8, !tbaa !31
  %13 = icmp eq i32 %12, 0
  br i1 %13, label %14, label %16

14:                                               ; preds = %7
  %15 = load ptr, ptr %2, align 8, !tbaa !22
  call void @_Py_Dealloc(ptr noundef %15)
  br label %16

16:                                               ; preds = %6, %14, %7
  ret void
}

; Function Attrs: nounwind uwtable
define internal void @close_blob(ptr noundef %0) #0 {
  %2 = alloca ptr, align 8
  %3 = alloca ptr, align 8
  %4 = alloca ptr, align 8
  store ptr %0, ptr %2, align 8, !tbaa !3
  %5 = load ptr, ptr %2, align 8, !tbaa !3
  %6 = getelementptr inbounds nuw %struct.pysqlite_Blob, ptr %5, i32 0, i32 2
  %7 = load ptr, ptr %6, align 8, !tbaa !25
  %8 = icmp ne ptr %7, null
  br i1 %8, label %9, label %19

9:                                                ; preds = %1
  call void @llvm.lifetime.start.p0(i64 8, ptr %3) #6
  %10 = load ptr, ptr %2, align 8, !tbaa !3
  %11 = getelementptr inbounds nuw %struct.pysqlite_Blob, ptr %10, i32 0, i32 2
  %12 = load ptr, ptr %11, align 8, !tbaa !25
  store ptr %12, ptr %3, align 8, !tbaa !28
  %13 = load ptr, ptr %2, align 8, !tbaa !3
  %14 = getelementptr inbounds nuw %struct.pysqlite_Blob, ptr %13, i32 0, i32 2
  store ptr null, ptr %14, align 8, !tbaa !25
  call void @llvm.lifetime.start.p0(i64 8, ptr %4) #6
  %15 = call ptr @PyEval_SaveThread()
  store ptr %15, ptr %4, align 8, !tbaa !29
  %16 = load ptr, ptr %3, align 8, !tbaa !28
  %17 = call i32 @sqlite3_blob_close(ptr noundef %16)
  %18 = load ptr, ptr %4, align 8, !tbaa !29
  call void @PyEval_RestoreThread(ptr noundef %18)
  call void @llvm.lifetime.end.p0(i64 8, ptr %4) #6
  call void @llvm.lifetime.end.p0(i64 8, ptr %3) #6
  br label %19

19:                                               ; preds = %9, %1
  ret void
}

; Function Attrs: inlinehint nounwind uwtable
define internal i64 @PyList_GET_SIZE(ptr noundef %0) #2 {
  %2 = alloca ptr, align 8
  %3 = alloca ptr, align 8
  store ptr %0, ptr %2, align 8, !tbaa !22
  call void @llvm.lifetime.start.p0(i64 8, ptr %3) #6
  %4 = load ptr, ptr %2, align 8, !tbaa !22
  store ptr %4, ptr %3, align 8, !tbaa !3
  %5 = load ptr, ptr %3, align 8, !tbaa !3
  %6 = call i64 @Py_SIZE(ptr noundef %5)
  call void @llvm.lifetime.end.p0(i64 8, ptr %3) #6
  ret i64 %6
}

; Function Attrs: nounwind uwtable
define hidden void @pysqlite_close_all_blobs(ptr noundef %0) #0 {
  %2 = alloca ptr, align 8
  %3 = alloca i64, align 8
  %4 = alloca i32, align 4
  %5 = alloca ptr, align 8
  %6 = alloca ptr, align 8
  store ptr %0, ptr %2, align 8, !tbaa !3
  call void @llvm.lifetime.start.p0(i64 8, ptr %3) #6
  store i64 0, ptr %3, align 8, !tbaa !7
  br label %7

7:                                                ; preds = %34, %1
  %8 = load i64, ptr %3, align 8, !tbaa !7
  %9 = load ptr, ptr %2, align 8, !tbaa !3
  %10 = getelementptr inbounds nuw %struct.pysqlite_Connection, ptr %9, i32 0, i32 11
  %11 = load ptr, ptr %10, align 8, !tbaa !9
  %12 = call i64 @PyList_GET_SIZE(ptr noundef %11)
  %13 = icmp slt i64 %8, %12
  br i1 %13, label %15, label %14

14:                                               ; preds = %7
  store i32 2, ptr %4, align 4
  call void @llvm.lifetime.end.p0(i64 8, ptr %3) #6
  br label %37

15:                                               ; preds = %7
  call void @llvm.lifetime.start.p0(i64 8, ptr %5) #6
  %16 = load ptr, ptr %2, align 8, !tbaa !3
  %17 = getelementptr inbounds nuw %struct.pysqlite_Connection, ptr %16, i32 0, i32 11
  %18 = load ptr, ptr %17, align 8, !tbaa !9
  %19 = getelementptr inbounds nuw %struct.PyListObject, ptr %18, i32 0, i32 1
  %20 = load ptr, ptr %19, align 8, !tbaa !18
  %21 = load i64, ptr %3, align 8, !tbaa !7
  %22 = getelementptr ptr, ptr %20, i64 %21
  %23 = load ptr, ptr %22, align 8, !tbaa !22
  store ptr %23, ptr %5, align 8, !tbaa !22
  call void @llvm.lifetime.start.p0(i64 8, ptr %6) #6
  %24 = load ptr, ptr %5, align 8, !tbaa !22
  %25 = call i32 @PyWeakref_GetRef(ptr noundef %24, ptr noundef %6)
  %26 = icmp ne i32 %25, 0
  br i1 %26, label %28, label %27

27:                                               ; preds = %15
  store i32 4, ptr %4, align 4
  br label %31

28:                                               ; preds = %15
  %29 = load ptr, ptr %6, align 8, !tbaa !22
  call void @close_blob(ptr noundef %29)
  %30 = load ptr, ptr %6, align 8, !tbaa !22
  call void @Py_DECREF(ptr noundef %30)
  store i32 0, ptr %4, align 4
  br label %31

31:                                               ; preds = %28, %27
  call void @llvm.lifetime.end.p0(i64 8, ptr %6) #6
  call void @llvm.lifetime.end.p0(i64 8, ptr %5) #6
  %32 = load i32, ptr %4, align 4
  switch i32 %32, label %38 [
    i32 0, label %33
    i32 4, label %34
  ]

33:                                               ; preds = %31
  br label %34

34:                                               ; preds = %33, %31
  %35 = load i64, ptr %3, align 8, !tbaa !7
  %36 = add i64 %35, 1
  store i64 %36, ptr %3, align 8, !tbaa !7
  br label %7, !llvm.loop !23

37:                                               ; preds = %14
  ret void

38:                                               ; preds = %31
  unreachable
}