; Function Attrs: nounwind uwtable
define hidden void @pysqlite_close_all_blobs(ptr noundef readonly captures(none) %0) local_unnamed_addr #0 {
  %2 = alloca ptr, align 8
  %3 = getelementptr inbounds nuw i8, ptr %0, i64 88
  %4 = load ptr, ptr %3, align 8, !tbaa !3
  %5 = getelementptr i8, ptr %4, i64 16
  %.val6 = load i64, ptr %5, align 8, !tbaa !16
  %6 = icmp sgt i64 %.val6, 0
  br i1 %6, label %.lr.ph, label %._crit_edge

._crit_edge:                                      ; preds = %Py_DECREF.exit, %1
  ret void

.lr.ph:                                           ; preds = %1, %Py_DECREF.exit
  %7 = phi ptr [ %27, %Py_DECREF.exit ], [ %4, %1 ]
  %.07 = phi i64 [ %26, %Py_DECREF.exit ], [ 0, %1 ]
  %8 = getelementptr inbounds nuw i8, ptr %7, i64 24
  %9 = load ptr, ptr %8, align 8, !tbaa !18
  %10 = getelementptr ptr, ptr %9, i64 %.07
  %11 = load ptr, ptr %10, align 8, !tbaa !21
  call void @llvm.lifetime.start.p0(i64 8, ptr nonnull %2) #5
  %12 = call i32 @PyWeakref_GetRef(ptr noundef %11, ptr noundef nonnull %2) #5
  %.not = icmp eq i32 %12, 0
  br i1 %.not, label %Py_DECREF.exit, label %13

13:                                               ; preds = %.lr.ph
  %14 = load ptr, ptr %2, align 8, !tbaa !21
  %15 = getelementptr inbounds nuw i8, ptr %14, i64 24
  %16 = load ptr, ptr %15, align 8, !tbaa !22
  %.not.i5 = icmp eq ptr %16, null
  br i1 %.not.i5, label %close_blob.exit, label %17

17:                                               ; preds = %13
  store ptr null, ptr %15, align 8, !tbaa !22
  %18 = call ptr @PyEval_SaveThread() #5
  %19 = call i32 @sqlite3_blob_close(ptr noundef nonnull %16) #5
  call void @PyEval_RestoreThread(ptr noundef %18) #5
  %.pre = load ptr, ptr %2, align 8, !tbaa !21
  br label %close_blob.exit

close_blob.exit:                                  ; preds = %13, %17
  %20 = phi ptr [ %14, %13 ], [ %.pre, %17 ]
  %21 = load i32, ptr %20, align 8, !tbaa !25
  %.not.i = icmp sgt i32 %21, -1
  br i1 %.not.i, label %22, label %Py_DECREF.exit

22:                                               ; preds = %close_blob.exit
  %23 = add nsw i32 %21, -1
  store i32 %23, ptr %20, align 8, !tbaa !25
  %24 = icmp eq i32 %23, 0
  br i1 %24, label %25, label %Py_DECREF.exit

25:                                               ; preds = %22
  call void @_Py_Dealloc(ptr noundef nonnull %20) #5
  br label %Py_DECREF.exit

Py_DECREF.exit:                                   ; preds = %25, %22, %close_blob.exit, %.lr.ph
  call void @llvm.lifetime.end.p0(i64 8, ptr nonnull %2) #5
  %26 = add nuw nsw i64 %.07, 1
  %27 = load ptr, ptr %3, align 8, !tbaa !3
  %28 = getelementptr i8, ptr %27, i64 16
  %.val = load i64, ptr %28, align 8, !tbaa !16
  %29 = icmp slt i64 %26, %.val
  br i1 %29, label %.lr.ph, label %._crit_edge, !llvm.loop !26
}